target datalayout = "e-m:e-p270:32:32-p271:32:32-p272:64:64-i64:64-i128:128-f80:128-n8:16:32:64-S128"
target triple = "x86_64-pc-linux-gnu"

%struct.job_state_t = type { i64, i64, i32, i64 }

; Function Attrs: nounwind uwtable
define internal i32 @_list_find_expired_job_state(ptr noundef %0, ptr noundef %1) #0 {
  %3 = alloca i32, align 4
  %4 = alloca ptr, align 8
  %5 = alloca ptr, align 8
  %6 = alloca ptr, align 8
  %7 = alloca i64, align 8
  %8 = alloca i32, align 4
  store ptr %0, ptr %4, align 8
  store ptr %1, ptr %5, align 8
  call void @llvm.lifetime.start.p0(i64 8, ptr %6) #7
  %9 = load ptr, ptr %4, align 8
  store ptr %9, ptr %6, align 8
  call void @llvm.lifetime.start.p0(i64 8, ptr %7) #7
  %10 = load ptr, ptr %5, align 8
  %11 = load i64, ptr %10, align 8
  store i64 %11, ptr %7, align 8
  %12 = load ptr, ptr %6, align 8
  %13 = getelementptr inbounds nuw %struct.job_state_t, ptr %12, i32 0, i32 3
  %14 = load i64, ptr %13, align 8
  %15 = icmp ne i64 %14, 0
  br i1 %15, label %16, label %23

16:                                               ; preds = %2
  %17 = load i64, ptr %7, align 8
  %18 = load ptr, ptr %6, align 8
  %19 = getelementptr inbounds nuw %struct.job_state_t, ptr %18, i32 0, i32 1
  %20 = load i64, ptr %19, align 8
  %21 = icmp sgt i64 %17, %20
  br i1 %21, label %22, label %23

22:                                               ; preds = %16
  store i32 1, ptr %3, align 4
  store i32 1, ptr %8, align 4
  br label %24

23:                                               ; preds = %16, %2
  store i32 0, ptr %3, align 4
  store i32 1, ptr %8, align 4
  br label %24

24:                                               ; preds = %23, %22
  call void @llvm.lifetime.end.p0(i64 8, ptr %7) #7
  call void @llvm.lifetime.end.p0(i64 8, ptr %6) #7
  %25 = load i32, ptr %3, align 4
  ret i32 %25
}