; Function Attrs: mustprogress nofree norecurse nosync nounwind willreturn memory(argmem: read) uwtable
define internal range(i32 0, 2) i32 @_list_find_expired_job_state(ptr noundef readonly captures(none) %0, ptr noundef readonly captures(none) %1) #8 {
  %3 = getelementptr inbounds nuw i8, ptr %0, i64 24
  %4 = load i64, ptr %3, align 8
  %.not = icmp eq i64 %4, 0
  br i1 %.not, label %10, label %5

5:                                                ; preds = %2
  %6 = load i64, ptr %1, align 8
  %7 = getelementptr inbounds nuw i8, ptr %0, i64 8
  %8 = load i64, ptr %7, align 8
  %9 = icmp sgt i64 %6, %8
  br i1 %9, label %11, label %10

10:                                               ; preds = %5, %2
  br label %11

11:                                               ; preds = %5, %10
  %.0 = phi i32 [ 0, %10 ], [ 1, %5 ]
  ret i32 %.0
}